target datalayout = "e-m:e-p270:32:32-p271:32:32-p272:64:64-i64:64-i128:128-f80:128-n8:16:32:64-S128"
target triple = "x86_64-pc-linux-gnu"

%class.ProbElem = type { ptr }
%"class.std::__cxx11::basic_string" = type { %"struct.std::__cxx11::basic_string<char>::_Alloc_hider", i64, %union.anon }
%"struct.std::__cxx11::basic_string<char>::_Alloc_hider" = type { ptr }
%union.anon = type { i64, [8 x i8] }
%class.SingleProbElem = type <{ %class.ProbElem, %"class.std::__cxx11::basic_string", i32, i32, i32, [4 x i8] }>

; Function Attrs: mustprogress nounwind uwtable
define dso_local void @_ZN8ProbElemD2Ev(ptr noundef nonnull align 8 dereferenceable(8) %0) unnamed_addr #5 align 2 {
  %2 = alloca ptr, align 8
  store ptr %0, ptr %2, align 8
  ret void
}

; Function Attrs: mustprogress nounwind uwtable
define linkonce_odr dso_local void @_ZN8ProbElemC2Ev(ptr noundef nonnull align 8 dereferenceable(8) %0) unnamed_addr #5 comdat align 2 {
  %2 = alloca ptr, align 8
  store ptr %0, ptr %2, align 8
  %3 = load ptr, ptr %2, align 8
  store ptr getelementptr inbounds ({ [10 x ptr] }, ptr @_ZTV8ProbElem, i32 0, i32 0, i32 2), ptr %3, align 8
  ret void
}

; Function Attrs: mustprogress uwtable
define dso_local void @_ZN14SingleProbElemC2ERKNSt7__cxx1112basic_stringIcSt11char_traitsIcESaIcEEE8ProbNameii(ptr noundef nonnull align 8 dereferenceable(52) %0, ptr noundef nonnull align 8 dereferenceable(32) %1, i32 noundef %2, i32 noundef %3, i32 noundef %4) unnamed_addr #4 align 2 personality ptr @__gxx_personality_v0 {
  %6 = alloca ptr, align 8
  %7 = alloca ptr, align 8
  %8 = alloca i32, align 4
  %9 = alloca i32, align 4
  %10 = alloca i32, align 4
  %11 = alloca ptr, align 8
  %12 = alloca i32, align 4
  store ptr %0, ptr %6, align 8
  store ptr %1, ptr %7, align 8
  store i32 %2, ptr %8, align 4
  store i32 %3, ptr %9, align 4
  store i32 %4, ptr %10, align 4
  %13 = load ptr, ptr %6, align 8
  call void @_ZN8ProbElemC2Ev(ptr noundef nonnull align 8 dereferenceable(8) %13)
  store ptr getelementptr inbounds ({ [10 x ptr] }, ptr @_ZTV14SingleProbElem, i32 0, i32 0, i32 2), ptr %13, align 8
  %14 = getelementptr inbounds %class.SingleProbElem, ptr %13, i32 0, i32 1
  %15 = load ptr, ptr %7, align 8
  invoke void @_ZNSt7__cxx1112basic_stringIcSt11char_traitsIcESaIcEEC1ERKS4_(ptr noundef nonnull align 8 dereferenceable(32) %14, ptr noundef nonnull align 8 dereferenceable(32) %15)
          to label %16 unwind label %23

16:                                               ; preds = %5
  %17 = getelementptr inbounds %class.SingleProbElem, ptr %13, i32 0, i32 2
  %18 = load i32, ptr %8, align 4
  store i32 %18, ptr %17, align 8
  %19 = getelementptr inbounds %class.SingleProbElem, ptr %13, i32 0, i32 3
  %20 = load i32, ptr %9, align 4
  store i32 %20, ptr %19, align 4
  %21 = getelementptr inbounds %class.SingleProbElem, ptr %13, i32 0, i32 4
  %22 = load i32, ptr %10, align 4
  store i32 %22, ptr %21, align 8
  ret void

23:                                               ; preds = %5
  %24 = landingpad { ptr, i32 }
          cleanup
  %25 = extractvalue { ptr, i32 } %24, 0
  store ptr %25, ptr %11, align 8
  %26 = extractvalue { ptr, i32 } %24, 1
  store i32 %26, ptr %12, align 4
  call void @_ZN8ProbElemD2Ev(ptr noundef nonnull align 8 dereferenceable(8) %13) #3
  br label %27

27:                                               ; preds = %23
  %28 = load ptr, ptr %11, align 8
  %29 = load i32, ptr %12, align 4
  %30 = insertvalue { ptr, i32 } poison, ptr %28, 0
  %31 = insertvalue { ptr, i32 } %30, i32 %29, 1
  resume { ptr, i32 } %31
}