; Function Attrs: mustprogress uwtable
define dso_local void @_ZN14SingleProbElemC2ERKNSt7__cxx1112basic_stringIcSt11char_traitsIcESaIcEEE8ProbNameii(ptr noundef nonnull align 8 dereferenceable(52) %0, ptr noundef nonnull align 8 dereferenceable(32) %1, i32 noundef %2, i32 noundef %3, i32 noundef %4) unnamed_addr #3 align 2 personality ptr @__gxx_personality_v0 {
  store ptr getelementptr inbounds ({ [10 x ptr] }, ptr @_ZTV14SingleProbElem, i64 0, i32 0, i64 2), ptr %0, align 8
  %6 = getelementptr inbounds i8, ptr %0, i64 8
  tail call void @_ZNSt7__cxx1112basic_stringIcSt11char_traitsIcESaIcEEC1ERKS4_(ptr noundef nonnull align 8 dereferenceable(32) %6, ptr noundef nonnull align 8 dereferenceable(32) %1)
  %7 = getelementptr inbounds i8, ptr %0, i64 40
  store i32 %2, ptr %7, align 8
  %8 = getelementptr inbounds i8, ptr %0, i64 44
  store i32 %3, ptr %8, align 4
  %9 = getelementptr inbounds i8, ptr %0, i64 48
  store i32 %4, ptr %9, align 8
  ret void
}